; Function Attrs: mustprogress nofree norecurse nosync nounwind willreturn memory(read, inaccessiblemem: none) uwtable
define hidden noundef i64 @_ZNK14ArchiveBuilder13any_to_offsetEPh(ptr nocapture noundef nonnull readonly align 8 dereferenceable(1080) %0, ptr noundef %1) local_unnamed_addr #5 align 2 {
  %3 = getelementptr inbounds i8, ptr %0, i64 80
  %4 = load ptr, ptr %3, align 8
  %.not.i = icmp ule ptr %4, %1
  %5 = getelementptr inbounds i8, ptr %0, i64 88
  %6 = load ptr, ptr %5, align 8
  %7 = icmp ugt ptr %6, %1
  %8 = select i1 %.not.i, i1 %7, i1 false
  br i1 %8, label %49, label %9

9:                                                ; preds = %2
  %10 = getelementptr inbounds i8, ptr %0, i64 16
  %11 = load ptr, ptr %10, align 8
  %.not.i7 = icmp ugt ptr %11, %1
  br i1 %.not.i7, label %_ZNK14ArchiveBuilder18is_in_buffer_spaceEPh.exit.thread, label %_ZNK14ArchiveBuilder18is_in_buffer_spaceEPh.exit

_ZNK14ArchiveBuilder18is_in_buffer_spaceEPh.exit: ; preds = %9
  %12 = getelementptr inbounds i8, ptr %0, i64 8
  %13 = load ptr, ptr %12, align 8
  %14 = getelementptr inbounds i8, ptr %13, i64 16
  %15 = load ptr, ptr %14, align 8
  %16 = icmp ugt ptr %15, %1
  br i1 %16, label %43, label %_ZNK14ArchiveBuilder18is_in_buffer_spaceEPh.exit.thread

_ZNK14ArchiveBuilder18is_in_buffer_spaceEPh.exit.thread: ; preds = %9, %_ZNK14ArchiveBuilder18is_in_buffer_spaceEPh.exit
  %17 = getelementptr inbounds i8, ptr %0, i64 552
  %18 = ptrtoint ptr %1 to i64
  %19 = trunc i64 %18 to i32
  %20 = lshr i32 %19, 3
  %21 = xor i32 %20, %19
  %22 = load i32, ptr %17, align 8
  %23 = urem i32 %21, %22
  %24 = getelementptr inbounds i8, ptr %0, i64 560
  %25 = load ptr, ptr %24, align 8
  %26 = zext i32 %23 to i64
  %27 = getelementptr inbounds ptr, ptr %25, i64 %26
  %28 = load ptr, ptr %27, align 8
  %.not11.i.i.i.i = icmp eq ptr %28, null
  br i1 %.not11.i.i.i.i, label %_ZNK14ArchiveBuilder17get_buffered_addrEPh.exit, label %.lr.ph.i.i.i.i

.lr.ph.i.i.i.i:                                   ; preds = %_ZNK14ArchiveBuilder18is_in_buffer_spaceEPh.exit.thread, %36
  %29 = phi ptr [ %38, %36 ], [ %28, %_ZNK14ArchiveBuilder18is_in_buffer_spaceEPh.exit.thread ]
  %30 = load i32, ptr %29, align 8
  %31 = icmp eq i32 %30, %21
  br i1 %31, label %32, label %36

32:                                               ; preds = %.lr.ph.i.i.i.i
  %33 = getelementptr inbounds i8, ptr %29, i64 8
  %34 = load ptr, ptr %33, align 8
  %35 = icmp eq ptr %34, %1
  br i1 %35, label %_ZNK14ArchiveBuilder17get_buffered_addrEPh.exit, label %36

36:                                               ; preds = %32, %.lr.ph.i.i.i.i
  %37 = getelementptr inbounds i8, ptr %29, i64 72
  %38 = load ptr, ptr %37, align 8
  %.not.i.i.i.i = icmp eq ptr %38, null
  br i1 %.not.i.i.i.i, label %_ZNK14ArchiveBuilder17get_buffered_addrEPh.exit, label %.lr.ph.i.i.i.i, !llvm.loop !18

_ZNK14ArchiveBuilder17get_buffered_addrEPh.exit:  ; preds = %32, %36, %_ZNK14ArchiveBuilder18is_in_buffer_spaceEPh.exit.thread
  %39 = phi ptr [ null, %_ZNK14ArchiveBuilder18is_in_buffer_spaceEPh.exit.thread ], [ %29, %32 ], [ null, %36 ]
  %.not.i.i = icmp eq ptr %39, null
  %40 = getelementptr inbounds i8, ptr %39, i64 16
  %.0.i.i = select i1 %.not.i.i, ptr null, ptr %40
  %41 = getelementptr inbounds i8, ptr %.0.i.i, i64 48
  %42 = load ptr, ptr %41, align 8
  br label %43

43:                                               ; preds = %_ZNK14ArchiveBuilder17get_buffered_addrEPh.exit, %_ZNK14ArchiveBuilder18is_in_buffer_spaceEPh.exit
  %.0 = phi ptr [ %1, %_ZNK14ArchiveBuilder18is_in_buffer_spaceEPh.exit ], [ %42, %_ZNK14ArchiveBuilder17get_buffered_addrEPh.exit ]
  %44 = getelementptr inbounds i8, ptr %0, i64 96
  %45 = load i64, ptr %44, align 8
  %46 = getelementptr inbounds i8, ptr %.0, i64 %45
  %47 = getelementptr inbounds i8, ptr %0, i64 48
  %48 = load ptr, ptr %47, align 8
  br label %49

49:                                               ; preds = %2, %43
  %.sink10 = phi ptr [ %46, %43 ], [ %1, %2 ]
  %.sink9 = phi ptr [ %48, %43 ], [ %4, %2 ]
  %50 = ptrtoint ptr %.sink10 to i64
  %51 = ptrtoint ptr %.sink9 to i64
  %52 = sub i64 %50, %51
  ret i64 %52
}